; Function Attrs: mustprogress uwtable
define internal void @_ZNK12_GLOBAL__N_116GitRegistryEntry17get_port_versionsEv(ptr dead_on_unwind noalias writable sret(%"struct.vcpkg::ExpectedT.366") align 8 %0, ptr noundef nonnull align 8 dereferenceable(104) %1) unnamed_addr #2 align 2 personality ptr @__gxx_personality_v0 {
  %3 = alloca %"struct.vcpkg::ExpectedT.15", align 8
  call fastcc void @_ZNK12_GLOBAL__N_116GitRegistryEntry16ensure_not_staleEv(ptr dead_on_unwind noalias nonnull writable align 8 %3, ptr noundef nonnull align 8 dereferenceable(104) %1)
  %4 = getelementptr inbounds i8, ptr %3, i64 32
  %5 = load i8, ptr %4, align 8
  %6 = and i8 %5, 1
  %.not.i = icmp eq i8 %6, 0
  br i1 %.not.i, label %.thread, label %16

.thread:                                          ; preds = %2
  %7 = getelementptr inbounds i8, ptr %1, i64 56
  %8 = load ptr, ptr %7, align 8
  %9 = getelementptr inbounds i8, ptr %1, i64 64
  %10 = load ptr, ptr %9, align 8
  %11 = ptrtoint ptr %10 to i64
  %12 = ptrtoint ptr %8 to i64
  %13 = sub i64 %11, %12
  %14 = sdiv exact i64 %13, 40
  store ptr %8, ptr %0, align 8
  %.sroa.2.0..sroa_idx = getelementptr inbounds i8, ptr %0, i64 8
  store i64 %14, ptr %.sroa.2.0..sroa_idx, align 8
  %15 = getelementptr inbounds i8, ptr %0, i64 32
  store i8 0, ptr %15, align 8
  br label %_ZN5vcpkg9ExpectedTINS_4UnitENS_15LocalizedStringEED2Ev.exit

16:                                               ; preds = %2
  call void @_ZNSt7__cxx1112basic_stringIcSt11char_traitsIcESaIcEEC1EOS4_(ptr noundef nonnull align 8 dereferenceable(32) %0, ptr noundef nonnull align 8 dereferenceable(32) %3) #26
  %.pre = load i8, ptr %4, align 8
  %.pre2 = and i8 %.pre, 1
  %17 = icmp eq i8 %.pre2, 0
  %18 = getelementptr inbounds i8, ptr %0, i64 32
  store i8 1, ptr %18, align 8
  br i1 %17, label %_ZN5vcpkg9ExpectedTINS_4UnitENS_15LocalizedStringEED2Ev.exit, label %19

19:                                               ; preds = %16
  call void @_ZNSt7__cxx1112basic_stringIcSt11char_traitsIcESaIcEED1Ev(ptr noundef nonnull align 8 dereferenceable(32) %3) #26
  br label %_ZN5vcpkg9ExpectedTINS_4UnitENS_15LocalizedStringEED2Ev.exit

_ZN5vcpkg9ExpectedTINS_4UnitENS_15LocalizedStringEED2Ev.exit: ; preds = %.thread, %16, %19
  ret void
}